target datalayout = "e-m:e-p270:32:32-p271:32:32-p272:64:64-i64:64-i128:128-f80:128-n8:16:32:64-S128"
target triple = "x86_64-pc-linux-gnu"

%struct._zend_llist = type { ptr, ptr, i64, i64, ptr, i8, ptr }
%struct._zend_llist_element = type { ptr, ptr, [1 x i8] }

; Function Attrs: nounwind uwtable
define void @zend_llist_del_element(ptr noundef %0, ptr noundef %1, ptr noundef %2) #0 {
  %4 = alloca ptr, align 8
  %5 = alloca ptr, align 8
  %6 = alloca ptr, align 8
  %7 = alloca ptr, align 8
  store ptr %0, ptr %4, align 8
  store ptr %1, ptr %5, align 8
  store ptr %2, ptr %6, align 8
  %8 = load ptr, ptr %4, align 8
  %9 = getelementptr inbounds %struct._zend_llist, ptr %8, i32 0, i32 0
  %10 = load ptr, ptr %9, align 8
  store ptr %10, ptr %7, align 8
  br label %11

11:                                               ; preds = %87, %3
  %12 = load ptr, ptr %7, align 8
  %13 = icmp ne ptr %12, null
  br i1 %13, label %14, label %91

14:                                               ; preds = %11
  %15 = load ptr, ptr %6, align 8
  %16 = load ptr, ptr %7, align 8
  %17 = getelementptr inbounds %struct._zend_llist_element, ptr %16, i32 0, i32 2
  %18 = getelementptr inbounds [1 x i8], ptr %17, i64 0, i64 0
  %19 = load ptr, ptr %5, align 8
  %20 = call i32 %15(ptr noundef %18, ptr noundef %19)
  %21 = icmp ne i32 %20, 0
  br i1 %21, label %22, label %87

22:                                               ; preds = %14
  %23 = load ptr, ptr %7, align 8
  %24 = getelementptr inbounds %struct._zend_llist_element, ptr %23, i32 0, i32 1
  %25 = load ptr, ptr %24, align 8
  %26 = icmp ne ptr %25, null
  br i1 %26, label %27, label %35

27:                                               ; preds = %22
  %28 = load ptr, ptr %7, align 8
  %29 = getelementptr inbounds %struct._zend_llist_element, ptr %28, i32 0, i32 0
  %30 = load ptr, ptr %29, align 8
  %31 = load ptr, ptr %7, align 8
  %32 = getelementptr inbounds %struct._zend_llist_element, ptr %31, i32 0, i32 1
  %33 = load ptr, ptr %32, align 8
  %34 = getelementptr inbounds %struct._zend_llist_element, ptr %33, i32 0, i32 0
  store ptr %30, ptr %34, align 8
  br label %41

35:                                               ; preds = %22
  %36 = load ptr, ptr %7, align 8
  %37 = getelementptr inbounds %struct._zend_llist_element, ptr %36, i32 0, i32 0
  %38 = load ptr, ptr %37, align 8
  %39 = load ptr, ptr %4, align 8
  %40 = getelementptr inbounds %struct._zend_llist, ptr %39, i32 0, i32 0
  store ptr %38, ptr %40, align 8
  br label %41

41:                                               ; preds = %35, %27
  %42 = load ptr, ptr %7, align 8
  %43 = getelementptr inbounds %struct._zend_llist_element, ptr %42, i32 0, i32 0
  %44 = load ptr, ptr %43, align 8
  %45 = icmp ne ptr %44, null
  br i1 %45, label %46, label %54

46:                                               ; preds = %41
  %47 = load ptr, ptr %7, align 8
  %48 = getelementptr inbounds %struct._zend_llist_element, ptr %47, i32 0, i32 1
  %49 = load ptr, ptr %48, align 8
  %50 = load ptr, ptr %7, align 8
  %51 = getelementptr inbounds %struct._zend_llist_element, ptr %50, i32 0, i32 0
  %52 = load ptr, ptr %51, align 8
  %53 = getelementptr inbounds %struct._zend_llist_element, ptr %52, i32 0, i32 1
  store ptr %49, ptr %53, align 8
  br label %60

54:                                               ; preds = %41
  %55 = load ptr, ptr %7, align 8
  %56 = getelementptr inbounds %struct._zend_llist_element, ptr %55, i32 0, i32 1
  %57 = load ptr, ptr %56, align 8
  %58 = load ptr, ptr %4, align 8
  %59 = getelementptr inbounds %struct._zend_llist, ptr %58, i32 0, i32 1
  store ptr %57, ptr %59, align 8
  br label %60

60:                                               ; preds = %54, %46
  %61 = load ptr, ptr %4, align 8
  %62 = getelementptr inbounds %struct._zend_llist, ptr %61, i32 0, i32 4
  %63 = load ptr, ptr %62, align 8
  %64 = icmp ne ptr %63, null
  br i1 %64, label %65, label %72

65:                                               ; preds = %60
  %66 = load ptr, ptr %4, align 8
  %67 = getelementptr inbounds %struct._zend_llist, ptr %66, i32 0, i32 4
  %68 = load ptr, ptr %67, align 8
  %69 = load ptr, ptr %7, align 8
  %70 = getelementptr inbounds %struct._zend_llist_element, ptr %69, i32 0, i32 2
  %71 = getelementptr inbounds [1 x i8], ptr %70, i64 0, i64 0
  call void %68(ptr noundef %71)
  br label %72

72:                                               ; preds = %65, %60
  %73 = load ptr, ptr %4, align 8
  %74 = getelementptr inbounds %struct._zend_llist, ptr %73, i32 0, i32 5
  %75 = load i8, ptr %74, align 8
  %76 = zext i8 %75 to i32
  %77 = icmp ne i32 %76, 0
  br i1 %77, label %78, label %80

78:                                               ; preds = %72
  %79 = load ptr, ptr %7, align 8
  call void @free(ptr noundef %79) #8
  br label %82

80:                                               ; preds = %72
  %81 = load ptr, ptr %7, align 8
  call void @_efree(ptr noundef %81)
  br label %82

82:                                               ; preds = %80, %78
  %83 = load ptr, ptr %4, align 8
  %84 = getelementptr inbounds %struct._zend_llist, ptr %83, i32 0, i32 2
  %85 = load i64, ptr %84, align 8
  %86 = add i64 %85, -1
  store i64 %86, ptr %84, align 8
  br label %91

87:                                               ; preds = %14
  %88 = load ptr, ptr %7, align 8
  %89 = getelementptr inbounds %struct._zend_llist_element, ptr %88, i32 0, i32 0
  %90 = load ptr, ptr %89, align 8
  store ptr %90, ptr %7, align 8
  br label %11

91:                                               ; preds = %82, %11
  ret void
}