; Function Attrs: nounwind uwtable
define void @zend_llist_del_element(ptr nocapture noundef %0, ptr noundef %1, ptr nocapture noundef readonly %2) local_unnamed_addr #1 {
  br label %4

4:                                                ; preds = %5, %3
  %.0.in = phi ptr [ %0, %3 ], [ %.0, %5 ]
  %.0 = load ptr, ptr %.0.in, align 8
  %.not = icmp eq ptr %.0, null
  br i1 %.not, label %.loopexit, label %5

5:                                                ; preds = %4
  %6 = getelementptr inbounds i8, ptr %.0, i64 16
  %7 = tail call i32 %2(ptr noundef nonnull %6, ptr noundef %1) #13
  %.not26 = icmp eq i32 %7, 0
  br i1 %.not26, label %4, label %8

8:                                                ; preds = %5
  %9 = getelementptr inbounds i8, ptr %.0, i64 8
  %10 = load ptr, ptr %9, align 8
  %.not27 = icmp eq ptr %10, null
  %11 = load ptr, ptr %.0, align 8
  %. = select i1 %.not27, ptr %0, ptr %10
  store ptr %11, ptr %., align 8
  %.not28 = icmp eq ptr %11, null
  %.sink36 = select i1 %.not28, ptr %0, ptr %11
  %12 = load ptr, ptr %9, align 8
  %13 = getelementptr inbounds i8, ptr %.sink36, i64 8
  store ptr %12, ptr %13, align 8
  %14 = getelementptr inbounds i8, ptr %0, i64 32
  %15 = load ptr, ptr %14, align 8
  %.not29 = icmp eq ptr %15, null
  br i1 %.not29, label %17, label %16

16:                                               ; preds = %8
  tail call void %15(ptr noundef nonnull %6) #13
  br label %17

17:                                               ; preds = %16, %8
  %18 = getelementptr inbounds i8, ptr %0, i64 40
  %19 = load i8, ptr %18, align 8
  %.not30 = icmp eq i8 %19, 0
  br i1 %.not30, label %21, label %20

20:                                               ; preds = %17
  tail call void @free(ptr noundef nonnull %.0) #13
  br label %22

21:                                               ; preds = %17
  tail call void @_efree(ptr noundef nonnull %.0) #13
  br label %22

22:                                               ; preds = %21, %20
  %23 = getelementptr inbounds i8, ptr %0, i64 16
  %24 = load i64, ptr %23, align 8
  %25 = add i64 %24, -1
  store i64 %25, ptr %23, align 8
  br label %.loopexit

.loopexit:                                        ; preds = %4, %22
  ret void
}